; ModuleID = '11/790.c'
source_filename = "11/790.c"
target datalayout = "e-m:e-p270:32:32-p271:32:32-p272:64:64-i64:64-f80:128-n8:16:32:64-S128"
target triple = "x86_64-pc-linux-gnu"

@.str = private unnamed_addr constant [9 x i8] c"%d %d %d\00", align 1
@.str.1 = private unnamed_addr constant [4 x i8] c"%d\0A\00", align 1

; Function Attrs: noinline nounwind uwtable
define dso_local i32 @main() #0 {
  %1 = alloca i32, align 4
  %2 = alloca i32, align 4
  %3 = alloca i32, align 4
  %4 = alloca i32, align 4
  %5 = alloca i32, align 4
  %6 = alloca i32, align 4
  %7 = alloca [12 x i32], align 16
  store i32 0, i32* %1, align 4
  store i32 0, i32* %5, align 4
  %8 = call i32 (i8*, ...) @__isoc99_scanf(i8* getelementptr inbounds ([9 x i8], [9 x i8]* @.str, i64 0, i64 0), i32* %2, i32* %3, i32* %4)
  %9 = getelementptr inbounds [12 x i32], [12 x i32]* %7, i64 0, i64 0
  store i32 31, i32* %9, align 16
  %10 = getelementptr inbounds [12 x i32], [12 x i32]* %7, i64 0, i64 1
  store i32 28, i32* %10, align 4
  %11 = getelementptr inbounds [12 x i32], [12 x i32]* %7, i64 0, i64 2
  store i32 31, i32* %11, align 8
  %12 = getelementptr inbounds [12 x i32], [12 x i32]* %7, i64 0, i64 3
  store i32 30, i32* %12, align 4
  %13 = getelementptr inbounds [12 x i32], [12 x i32]* %7, i64 0, i64 4
  store i32 31, i32* %13, align 16
  %14 = getelementptr inbounds [12 x i32], [12 x i32]* %7, i64 0, i64 5
  store i32 30, i32* %14, align 4
  %15 = getelementptr inbounds [12 x i32], [12 x i32]* %7, i64 0, i64 6
  store i32 31, i32* %15, align 8
  %16 = getelementptr inbounds [12 x i32], [12 x i32]* %7, i64 0, i64 7
  store i32 31, i32* %16, align 4
  %17 = getelementptr inbounds [12 x i32], [12 x i32]* %7, i64 0, i64 8
  store i32 30, i32* %17, align 16
  %18 = getelementptr inbounds [12 x i32], [12 x i32]* %7, i64 0, i64 9
  store i32 31, i32* %18, align 4
  %19 = getelementptr inbounds [12 x i32], [12 x i32]* %7, i64 0, i64 10
  store i32 30, i32* %19, align 8
  %20 = getelementptr inbounds [12 x i32], [12 x i32]* %7, i64 0, i64 11
  store i32 31, i32* %20, align 4
  %21 = load i32, i32* %2, align 4
  %22 = srem i32 %21, 4
  %23 = icmp eq i32 %22, 0
  br i1 %23, label %24, label %28

24:                                               ; preds = %0
  %25 = load i32, i32* %2, align 4
  %26 = srem i32 %25, 100
  %27 = icmp ne i32 %26, 0
  br i1 %27, label %32, label %28

28:                                               ; preds = %24, %0
  %29 = load i32, i32* %2, align 4
  %30 = srem i32 %29, 400
  %31 = icmp eq i32 %30, 0
  br i1 %31, label %32, label %34

32:                                               ; preds = %28, %24
  %33 = getelementptr inbounds [12 x i32], [12 x i32]* %7, i64 0, i64 1
  store i32 29, i32* %33, align 4
  br label %34

34:                                               ; preds = %32, %28
  store i32 0, i32* %6, align 4
  br label %35

35:                                               ; preds = %47, %34
  %36 = load i32, i32* %6, align 4
  %37 = load i32, i32* %3, align 4
  %38 = sub nsw i32 %37, 1
  %39 = icmp slt i32 %36, %38
  br i1 %39, label %40, label %50

40:                                               ; preds = %35
  %41 = load i32, i32* %5, align 4
  %42 = load i32, i32* %6, align 4
  %43 = sext i32 %42 to i64
  %44 = getelementptr inbounds [12 x i32], [12 x i32]* %7, i64 0, i64 %43
  %45 = load i32, i32* %44, align 4
  %46 = add nsw i32 %41, %45
  store i32 %46, i32* %5, align 4
  br label %47

47:                                               ; preds = %40
  %48 = load i32, i32* %6, align 4
  %49 = add nsw i32 %48, 1
  store i32 %49, i32* %6, align 4
  br label %35

50:                                               ; preds = %35
  %51 = load i32, i32* %5, align 4
  %52 = load i32, i32* %4, align 4
  %53 = add nsw i32 %51, %52
  store i32 %53, i32* %5, align 4
  %54 = load i32, i32* %5, align 4
  %55 = call i32 (i8*, ...) @printf(i8* getelementptr inbounds ([4 x i8], [4 x i8]* @.str.1, i64 0, i64 0), i32 %54)
  %56 = call i32 @getchar()
  %57 = call i32 @getchar()
  %58 = load i32, i32* %1, align 4
  ret i32 %58
}

declare dso_local i32 @__isoc99_scanf(i8*, ...) #1

declare dso_local i32 @printf(i8*, ...) #1

declare dso_local i32 @getchar() #1


!llvm.module.flags = !{!0}
!llvm.ident = !{!1}

!0 = !{i32 1, !"wchar_size", i32 4}
!1 = !{!"clang version 10.0.0-4ubuntu1 "}
